Certificate:
    Data:
        Version: 3 (0x2)
        Serial Number:
            28:80:ef:08:b8:9b:b7:86:a6:12:bc:18:1e:34:cf:a6:05:24:47:4b
        Signature Algorithm: ecdsa-with-SHA256
        Issuer: CN=godca
        Validity
            Not Before: Sep  3 08:27:33 2024 GMT
            Not After : Sep  2 08:27:33 2029 GMT
        Subject: C=CN, ST=Some-State, O=home, CN=dbCA
        Subject Public Key Info:
            Public Key Algorithm: id-ecPublicKey
                Public-Key: (384 bit)
                pub:
                    04:65:5a:92:54:27:04:eb:eb:34:9b:55:6f:81:e7:
                    54:ac:58:64:c6:47:54:41:58:67:02:2c:57:66:02:
                    28:77:84:81:74:cc:d4:4e:b6:e9:de:80:a6:ca:27:
                    68:09:59:51:cb:d6:5a:02:df:90:49:74:21:39:5b:
                    00:35:2d:ce:9c:cf:89:3b:08:c4:8f:33:20:52:8c:
                    84:fa:f1:17:50:dc:1b:f8:2a:7a:a6:84:06:20:47:
                    e7:60:d9:90:48:0c:a7
                ASN1 OID: secp384r1
                NIST CURVE: P-384
        X509v3 extensions:
            X509v3 Subject Key Identifier: 
                5A:65:5B:67:D2:85:32:C6:B5:BA:36:E5:74:38:84:4F:B2:F9:3F:D3
            X509v3 Authority Key Identifier: 
                5C:96:42:0E:E1:1B:BC:7B:39:28:3F:99:E6:BD:04:B1:89:7B:82:98
            X509v3 Basic Constraints: critical
                CA:TRUE
            X509v3 Key Usage: critical
                Digital Signature, Certificate Sign, CRL Sign
            X509v3 Extended Key Usage: 
                TLS Web Server Authentication, TLS Web Client Authentication
    Signature Algorithm: ecdsa-with-SHA256
    Signature Value:
        30:65:02:30:33:7e:c5:a8:cd:a2:52:7a:af:75:4a:7f:34:7b:
        39:51:51:c1:f0:56:93:74:e6:4f:c9:6c:44:49:67:ad:78:e7:
        ec:68:63:c9:ea:5f:2d:11:7d:16:65:71:be:62:f9:2b:02:31:
        00:af:09:33:e3:c0:05:9d:67:a1:00:b8:4a:78:df:e5:0c:aa:
        99:fa:e6:71:97:bc:ca:06:ee:29:c2:2f:26:76:fa:68:d1:08:
        31:8d:b7:d4:ac:84:b4:99:29:d3:b8:6e:6f
-----BEGIN CERTIFICATE-----
MIICEzCCAZmgAwIBAgIUKIDvCLibt4amErwYHjTPpgUkR0swCgYIKoZIzj0EAwIw
EDEOMAwGA1UEAwwFZ29kY2EwHhcNMjQwOTAzMDgyNzMzWhcNMjkwOTAyMDgyNzMz
WjBAMQswCQYDVQQGEwJDTjETMBEGA1UECAwKU29tZS1TdGF0ZTENMAsGA1UECgwE
aG9tZTENMAsGA1UEAwwEZGJDQTB2MBAGByqGSM49AgEGBSuBBAAiA2IABGVaklQn
BOvrNJtVb4HnVKxYZMZHVEFYZwIsV2YCKHeEgXTM1E626d6ApsonaAlZUcvWWgLf
kEl0ITlbADUtzpzPiTsIxI8zIFKMhPrxF1DcG/gqeqaEBiBH52DZkEgMp6OBgzCB
gDAdBgNVHQ4EFgQUWmVbZ9KFMsa1ujbldDiET7L5P9MwHwYDVR0jBBgwFoAUXJZC
DuEbvHs5KD+Z5r0EsYl7gpgwDwYDVR0TAQH/BAUwAwEB/zAOBgNVHQ8BAf8EBAMC
AYYwHQYDVR0lBBYwFAYIKwYBBQUHAwEGCCsGAQUFBwMCMAoGCCqGSM49BAMCA2gA
MGUCMDN+xajNolJ6r3VKfzR7OVFRwfBWk3TmT8lsRElnrXjn7GhjyepfLRF9FmVx
vmL5KwIxAK8JM+PABZ1noQC4Snjf5QyqmfrmcZe8ygbuKcIvJnb6aNEIMY231KyE
tJkp07hubw==
-----END CERTIFICATE-----
