Certificate:
    Data:
        Version: 3 (0x2)
        Serial Number:
            4d:6c:a7:ec:ef:f8:a4:d1:fd:4b:60:2d:7d:03:99:cb:52:38:d9:15
        Signature Algorithm: ecdsa-with-SHA256
        Issuer: CN=godca
        Validity
            Not Before: Aug 12 16:46:11 2023 GMT
            Not After : Aug 10 16:46:11 2028 GMT
        Subject: O=home, CN=https
        Subject Public Key Info:
            Public Key Algorithm: id-ecPublicKey
                Public-Key: (384 bit)
                pub:
                    04:ac:67:c7:c6:16:8d:e8:ae:35:08:09:06:70:4b:
                    97:61:96:6e:0e:e6:6a:69:23:cc:0d:27:d5:0e:a8:
                    9c:45:28:63:82:0c:e7:ec:e6:68:16:eb:92:a4:4f:
                    ae:f9:43:8c:9a:a3:d2:50:d8:3f:1a:a3:6a:59:f0:
                    06:50:26:22:e4:e9:e4:9b:5b:5e:f7:0c:d0:85:64:
                    07:f7:a7:47:4d:33:23:25:2e:b4:21:f6:7e:49:69:
                    d6:a3:ce:e6:15:96:da
                ASN1 OID: secp384r1
                NIST CURVE: P-384
        X509v3 extensions:
            X509v3 Subject Key Identifier: 
                7C:B1:EE:E8:2B:EE:D2:4A:ED:FB:CE:A0:27:E4:56:BA:15:B9:4D:65
            X509v3 Authority Key Identifier: 
                keyid:5C:96:42:0E:E1:1B:BC:7B:39:28:3F:99:E6:BD:04:B1:89:7B:82:98

            X509v3 Basic Constraints: critical
                CA:TRUE
            X509v3 Key Usage: critical
                Digital Signature, Certificate Sign, CRL Sign
            X509v3 Extended Key Usage: 
                TLS Web Server Authentication, TLS Web Client Authentication
    Signature Algorithm: ecdsa-with-SHA256
         30:66:02:31:00:93:96:90:c4:9b:84:b8:7d:a3:1b:2b:89:a7:
         01:80:fd:5f:7b:1e:40:cf:bd:b7:29:f7:4e:b7:48:7f:64:86:
         97:32:90:1d:82:bb:ed:d2:05:84:f1:e0:f7:72:88:53:95:02:
         31:00:b2:db:2a:d9:4c:3e:3e:a7:b3:a0:ea:7f:10:68:cd:fc:
         08:75:cd:1a:85:cd:3d:e0:27:a5:bd:a1:ae:cd:0d:8a:a5:75:
         91:63:0d:d9:3e:9b:1d:ca:23:c5:c3:e5:8a:f1
-----BEGIN CERTIFICATE-----
MIIB8zCCAXigAwIBAgIUTWyn7O/4pNH9S2AtfQOZy1I42RUwCgYIKoZIzj0EAwIw
EDEOMAwGA1UEAwwFZ29kY2EwHhcNMjMwODEyMTY0NjExWhcNMjgwODEwMTY0NjEx
WjAfMQ0wCwYDVQQKDARob21lMQ4wDAYDVQQDDAVodHRwczB2MBAGByqGSM49AgEG
BSuBBAAiA2IABKxnx8YWjeiuNQgJBnBLl2GWbg7mamkjzA0n1Q6onEUoY4IM5+zm
aBbrkqRPrvlDjJqj0lDYPxqjalnwBlAmIuTp5JtbXvcM0IVkB/enR00zIyUutCH2
fklp1qPO5hWW2qOBgzCBgDAdBgNVHQ4EFgQUfLHu6Cvu0krt+86gJ+RWuhW5TWUw
HwYDVR0jBBgwFoAUXJZCDuEbvHs5KD+Z5r0EsYl7gpgwDwYDVR0TAQH/BAUwAwEB
/zAOBgNVHQ8BAf8EBAMCAYYwHQYDVR0lBBYwFAYIKwYBBQUHAwEGCCsGAQUFBwMC
MAoGCCqGSM49BAMCA2kAMGYCMQCTlpDEm4S4faMbK4mnAYD9X3seQM+9tyn3TrdI
f2SGlzKQHYK77dIFhPHg93KIU5UCMQCy2yrZTD4+p7Og6n8QaM38CHXNGoXNPeAn
pb2hrs0NiqV1kWMN2T6bHcojxcPlivE=
-----END CERTIFICATE-----
