Certificate:
    Data:
        Version: 3 (0x2)
        Serial Number:
            60:f5:84:68:a0:13:7a:77:c8:d8:a2:22:8c:51:5a:0f:29:c5:0b:f1
        Signature Algorithm: ecdsa-with-SHA256
        Issuer: CN=godca
        Validity
            Not Before: Aug 14 11:10:57 2023 GMT
            Not After : Aug 12 11:10:57 2028 GMT
        Subject: O=home, CN=MailSystemCA
        Subject Public Key Info:
            Public Key Algorithm: id-ecPublicKey
                Public-Key: (384 bit)
                pub:
                    04:ed:8f:f4:b5:53:cc:0a:d4:a6:3d:5c:ac:59:46:
                    bc:66:65:06:75:a7:46:a2:70:ae:ba:9e:c2:94:94:
                    4e:fc:1b:8e:b1:b7:9e:27:41:f8:bc:7a:67:b3:b2:
                    50:29:ed:4d:d1:70:b6:11:93:45:f0:e5:5c:90:53:
                    69:23:3d:dd:bc:03:2f:dc:68:a0:bc:c8:f4:79:f9:
                    86:4d:89:7e:51:7c:e9:79:a6:56:04:30:c9:d6:41:
                    77:98:6b:4c:f5:a5:0f
                ASN1 OID: secp384r1
                NIST CURVE: P-384
        X509v3 extensions:
            X509v3 Subject Key Identifier: 
                22:63:FF:D6:4C:A4:CE:EB:A9:48:43:EE:D9:65:A4:F1:E4:35:BA:B0
            X509v3 Authority Key Identifier: 
                keyid:5C:96:42:0E:E1:1B:BC:7B:39:28:3F:99:E6:BD:04:B1:89:7B:82:98

            X509v3 Basic Constraints: critical
                CA:TRUE
            X509v3 Key Usage: critical
                Digital Signature, Certificate Sign, CRL Sign
    Signature Algorithm: ecdsa-with-SHA256
         30:65:02:30:4c:a8:33:26:29:83:a4:6c:1f:4e:9c:db:97:53:
         d0:da:d9:7f:0d:1d:ee:9b:bf:72:04:83:18:f5:a2:ac:bd:86:
         b1:93:93:9e:4b:45:3b:23:89:84:26:8a:b5:de:48:66:02:31:
         00:9e:e9:9c:8c:d5:3d:fb:75:a4:d3:79:f5:b7:7f:16:4c:9b:
         e5:6b:8d:b2:57:5d:06:77:a9:bf:39:f3:0c:f0:d5:a5:8b:af:
         9f:55:a6:39:4f:55:e1:4c:37:59:8c:2a:64
-----BEGIN CERTIFICATE-----
MIIB2DCCAV6gAwIBAgIUYPWEaKATenfI2KIijFFaDynFC/EwCgYIKoZIzj0EAwIw
EDEOMAwGA1UEAwwFZ29kY2EwHhcNMjMwODE0MTExMDU3WhcNMjgwODEyMTExMDU3
WjAmMQ0wCwYDVQQKDARob21lMRUwEwYDVQQDDAxNYWlsU3lzdGVtQ0EwdjAQBgcq
hkjOPQIBBgUrgQQAIgNiAATtj/S1U8wK1KY9XKxZRrxmZQZ1p0aicK66nsKUlE78
G46xt54nQfi8emezslAp7U3RcLYRk0Xw5VyQU2kjPd28Ay/caKC8yPR5+YZNiX5R
fOl5plYEMMnWQXeYa0z1pQ+jYzBhMB0GA1UdDgQWBBQiY//WTKTO66lIQ+7ZZaTx
5DW6sDAfBgNVHSMEGDAWgBRclkIO4Ru8ezkoP5nmvQSxiXuCmDAPBgNVHRMBAf8E
BTADAQH/MA4GA1UdDwEB/wQEAwIBhjAKBggqhkjOPQQDAgNoADBlAjBMqDMmKYOk
bB9OnNuXU9Da2X8NHe6bv3IEgxj1oqy9hrGTk55LRTsjiYQmirXeSGYCMQCe6ZyM
1T37daTTefW3fxZMm+VrjbJXXQZ3qb858wzw1aWLr59VpjlPVeFMN1mMKmQ=
-----END CERTIFICATE-----
