Certificate:
    Data:
        Version: 3 (0x2)
        Serial Number:
            22:ff:ce:ac:a2:51:ae:12:2e:43:59:49:fd:f6:c6:0f:23:2a:6a:4c
        Signature Algorithm: ecdsa-with-SHA256
        Issuer: CN=godca
        Validity
            Not Before: Dec  8 15:12:39 2023 GMT
            Not After : Dec  6 15:12:39 2028 GMT
        Subject: C=AU, ST=Some-State, O=home, CN=otherserviceCA
        Subject Public Key Info:
            Public Key Algorithm: id-ecPublicKey
                Public-Key: (384 bit)
                pub:
                    04:e4:e7:33:34:ee:73:0e:d2:6f:19:8d:8a:b9:cc:
                    e9:05:73:c2:69:fb:55:2b:8c:60:03:d0:fb:89:5a:
                    40:6b:82:e5:82:11:8e:5b:aa:b4:0c:ea:28:6e:6f:
                    d0:fc:44:9f:a4:74:f2:88:18:a4:63:e9:bc:2b:ea:
                    61:2e:bb:d3:62:d4:be:e4:1c:83:da:ba:ca:46:94:
                    f4:4a:ac:56:b6:29:be:7d:8b:fa:41:2b:98:a9:0c:
                    d4:0d:5d:3a:34:39:8f
                ASN1 OID: secp384r1
                NIST CURVE: P-384
        X509v3 extensions:
            X509v3 Subject Key Identifier: 
                B5:61:01:7E:85:E8:17:55:FE:5E:4B:75:FA:EF:7D:44:E4:C4:86:04
            X509v3 Authority Key Identifier: 
                keyid:5C:96:42:0E:E1:1B:BC:7B:39:28:3F:99:E6:BD:04:B1:89:7B:82:98

            X509v3 Basic Constraints: critical
                CA:TRUE
            X509v3 Key Usage: critical
                Digital Signature, Certificate Sign, CRL Sign
            X509v3 Extended Key Usage: 
                TLS Web Server Authentication, TLS Web Client Authentication
    Signature Algorithm: ecdsa-with-SHA256
         30:65:02:31:00:d9:26:36:9e:f3:25:29:52:35:5d:5a:b7:ca:
         10:f9:dc:a7:58:85:4a:61:ff:be:80:ab:e8:82:7e:de:4c:8c:
         de:76:f2:25:0b:fe:6a:f4:16:44:da:b6:98:9a:84:b2:c6:02:
         30:6c:c9:97:85:81:70:ef:bc:38:d1:2e:54:3b:6f:77:01:ac:
         10:8e:13:ba:4b:03:1c:ce:b2:cd:7f:7f:ec:6b:62:57:bb:02:
         be:1d:2f:a3:d4:6a:e7:93:e3:a3:58:5f:4e
-----BEGIN CERTIFICATE-----
MIICHTCCAaOgAwIBAgIUIv/OrKJRrhIuQ1lJ/fbGDyMqakwwCgYIKoZIzj0EAwIw
EDEOMAwGA1UEAwwFZ29kY2EwHhcNMjMxMjA4MTUxMjM5WhcNMjgxMjA2MTUxMjM5
WjBKMQswCQYDVQQGEwJBVTETMBEGA1UECAwKU29tZS1TdGF0ZTENMAsGA1UECgwE
aG9tZTEXMBUGA1UEAwwOb3RoZXJzZXJ2aWNlQ0EwdjAQBgcqhkjOPQIBBgUrgQQA
IgNiAATk5zM07nMO0m8ZjYq5zOkFc8Jp+1UrjGAD0PuJWkBrguWCEY5bqrQM6ihu
b9D8RJ+kdPKIGKRj6bwr6mEuu9Ni1L7kHIPauspGlPRKrFa2Kb59i/pBK5ipDNQN
XTo0OY+jgYMwgYAwHQYDVR0OBBYEFLVhAX6F6BdV/l5LdfrvfUTkxIYEMB8GA1Ud
IwQYMBaAFFyWQg7hG7x7OSg/mea9BLGJe4KYMA8GA1UdEwEB/wQFMAMBAf8wDgYD
VR0PAQH/BAQDAgGGMB0GA1UdJQQWMBQGCCsGAQUFBwMBBggrBgEFBQcDAjAKBggq
hkjOPQQDAgNoADBlAjEA2SY2nvMlKVI1XVq3yhD53KdYhUph/76Aq+iCft5MjN52
8iUL/mr0FkTatpiahLLGAjBsyZeFgXDvvDjRLlQ7b3cBrBCOE7pLAxzOss1/f+xr
Yle7Ar4dL6PUaueT46NYX04=
-----END CERTIFICATE-----
