Certificate:
    Data:
        Version: 3 (0x2)
        Serial Number:
            4f:06:f6:8b:57:6a:bc:b5:e1:a1:07:c4:d3:0a:d6:ce:a6:18:a6:d6
        Signature Algorithm: ecdsa-with-SHA256
        Issuer: CN=godca
        Validity
            Not Before: Aug 18 07:50:27 2024 GMT
            Not After : Aug 17 07:50:27 2029 GMT
        Subject: C=CN, ST=Some-State, O=home, CN=smimeCA
        Subject Public Key Info:
            Public Key Algorithm: id-ecPublicKey
                Public-Key: (256 bit)
                pub:
                    04:de:b0:79:9e:2a:9d:b1:15:b2:10:f2:98:a5:60:
                    d8:0a:52:d7:96:ec:e5:32:cf:86:bc:84:92:f3:43:
                    b5:d1:c7:7c:48:11:ca:e5:7f:06:8f:ed:b8:3e:98:
                    02:53:59:d7:8a:ad:55:45:8f:7a:0f:4c:75:ca:f7:
                    a3:02:34:7e:3f
                ASN1 OID: prime256v1
                NIST CURVE: P-256
        X509v3 extensions:
            X509v3 Subject Key Identifier: 
                6A:22:48:11:C1:30:40:62:17:A9:FC:F9:4C:82:50:F8:30:A6:28:37
            X509v3 Authority Key Identifier: 
                5C:96:42:0E:E1:1B:BC:7B:39:28:3F:99:E6:BD:04:B1:89:7B:82:98
            X509v3 Basic Constraints: critical
                CA:TRUE
            X509v3 Key Usage: critical
                Digital Signature, Certificate Sign, CRL Sign
    Signature Algorithm: ecdsa-with-SHA256
    Signature Value:
        30:66:02:31:00:cb:58:ed:90:ed:df:4c:17:3a:8e:68:35:bf:
        1e:41:54:a1:b4:86:48:08:e2:e3:76:d1:98:69:67:60:23:77:
        cb:1b:cc:3a:08:c4:b8:2d:f3:de:e0:49:64:1e:cd:17:22:02:
        31:00:a5:b2:ce:3a:43:3f:8a:83:e6:fd:51:e6:49:34:50:11:
        3d:ed:52:cc:78:d5:cb:f2:8b:75:ee:b4:01:cb:a1:7d:16:ca:
        1f:93:d8:63:0d:c9:45:10:66:ee:05:c9:68:d0
-----BEGIN CERTIFICATE-----
MIIB2TCCAV6gAwIBAgIUTwb2i1dqvLXhoQfE0wrWzqYYptYwCgYIKoZIzj0EAwIw
EDEOMAwGA1UEAwwFZ29kY2EwHhcNMjQwODE4MDc1MDI3WhcNMjkwODE3MDc1MDI3
WjBDMQswCQYDVQQGEwJDTjETMBEGA1UECAwKU29tZS1TdGF0ZTENMAsGA1UECgwE
aG9tZTEQMA4GA1UEAwwHc21pbWVDQTBZMBMGByqGSM49AgEGCCqGSM49AwEHA0IA
BN6weZ4qnbEVshDymKVg2ApS15bs5TLPhryEkvNDtdHHfEgRyuV/Bo/tuD6YAlNZ
14qtVUWPeg9Mdcr3owI0fj+jYzBhMB0GA1UdDgQWBBRqIkgRwTBAYhep/PlMglD4
MKYoNzAfBgNVHSMEGDAWgBRclkIO4Ru8ezkoP5nmvQSxiXuCmDAPBgNVHRMBAf8E
BTADAQH/MA4GA1UdDwEB/wQEAwIBhjAKBggqhkjOPQQDAgNpADBmAjEAy1jtkO3f
TBc6jmg1vx5BVKG0hkgI4uN20ZhpZ2Ajd8sbzDoIxLgt897gSWQezRciAjEApbLO
OkM/ioPm/VHmSTRQET3tUsx41cvyi3XutAHLoX0Wyh+T2GMNyUUQZu4FyWjQ
-----END CERTIFICATE-----
