Certificate:
    Data:
        Version: 3 (0x2)
        Serial Number:
            7d:43:6c:02:e8:59:fb:18:32:d4:1d:92:6a:23:53:dc:d1:cd:e2:dd
        Signature Algorithm: ecdsa-with-SHA256
        Issuer: CN=godca
        Validity
            Not Before: May 13 13:18:21 2025 GMT
            Not After : May 12 13:18:21 2030 GMT
        Subject: C=CN, ST=Some-State, O=home, CN=vca
        Subject Public Key Info:
            Public Key Algorithm: id-ecPublicKey
                Public-Key: (384 bit)
                pub:
                    04:d5:cb:54:f4:86:ce:d2:b8:76:28:cd:ce:34:39:
                    89:83:48:07:12:70:5f:87:3e:0b:f9:8d:5f:be:b0:
                    63:c3:3d:f4:1e:d4:a7:9a:1b:91:84:4b:69:a5:4d:
                    db:63:b1:d2:3b:94:1a:12:d1:c7:79:da:6f:12:9b:
                    a0:a2:89:a0:2c:22:ed:8f:87:70:a0:80:6d:01:60:
                    29:f0:51:79:e2:80:34:ca:82:87:55:6b:00:dd:d1:
                    15:03:01:21:0e:ce:f5
                ASN1 OID: secp384r1
                NIST CURVE: P-384
        X509v3 extensions:
            X509v3 Subject Key Identifier: 
                36:87:18:D1:F0:EA:5C:B9:36:35:C1:E6:3B:6C:B1:78:CD:53:99:EC
            X509v3 Authority Key Identifier: 
                5C:96:42:0E:E1:1B:BC:7B:39:28:3F:99:E6:BD:04:B1:89:7B:82:98
            X509v3 Basic Constraints: critical
                CA:TRUE
            X509v3 Key Usage: critical
                Digital Signature, Certificate Sign, CRL Sign
    Signature Algorithm: ecdsa-with-SHA256
    Signature Value:
        30:64:02:30:46:fb:3d:d7:fa:10:7a:27:94:03:03:b5:69:79:
        59:83:6d:b8:c9:24:58:dd:02:b7:cd:65:c9:e0:6e:13:bc:63:
        d6:02:a8:81:c1:23:86:ee:9c:1d:b9:40:94:2b:3a:20:02:30:
        56:98:9f:04:95:b8:33:20:7b:cf:b9:02:8e:6b:39:24:33:8b:
        8d:06:db:6d:05:61:ae:b2:50:bc:83:49:46:44:13:3d:9c:ab:
        06:72:6d:b2:82:8f:c9:35:f6:51:6d:62
-----BEGIN CERTIFICATE-----
MIIB8DCCAXegAwIBAgIUfUNsAuhZ+xgy1B2SaiNT3NHN4t0wCgYIKoZIzj0EAwIw
EDEOMAwGA1UEAwwFZ29kY2EwHhcNMjUwNTEzMTMxODIxWhcNMzAwNTEyMTMxODIx
WjA/MQswCQYDVQQGEwJDTjETMBEGA1UECAwKU29tZS1TdGF0ZTENMAsGA1UECgwE
aG9tZTEMMAoGA1UEAwwDdmNhMHYwEAYHKoZIzj0CAQYFK4EEACIDYgAE1ctU9IbO
0rh2KM3ONDmJg0gHEnBfhz4L+Y1fvrBjwz30HtSnmhuRhEtppU3bY7HSO5QaEtHH
edpvEpugoomgLCLtj4dwoIBtAWAp8FF54oA0yoKHVWsA3dEVAwEhDs71o2MwYTAd
BgNVHQ4EFgQUNocY0fDqXLk2NcHmO2yxeM1TmewwHwYDVR0jBBgwFoAUXJZCDuEb
vHs5KD+Z5r0EsYl7gpgwDwYDVR0TAQH/BAUwAwEB/zAOBgNVHQ8BAf8EBAMCAYYw
CgYIKoZIzj0EAwIDZwAwZAIwRvs91/oQeieUAwO1aXlZg224ySRY3QK3zWXJ4G4T
vGPWAqiBwSOG7pwduUCUKzogAjBWmJ8ElbgzIHvPuQKOazkkM4uNBtttBWGuslC8
g0lGRBM9nKsGcm2ygo/JNfZRbWI=
-----END CERTIFICATE-----
